TN:
SF:/Users/tanishqaggarwal/Documents/pan/repositories/FlightSoftware/lib/utils/ControlTask.hpp
FN:19,_ZN11ControlTaskIvED2Ev
FN:27,_ZN11ControlTaskIvEC2ER18StateFieldRegistry
FN:38,_ZN11ControlTaskIvE18add_readable_fieldIbEEb18ReadableStateFieldIT_E
FN:38,_ZN11ControlTaskIvE18add_readable_fieldIjEEb18ReadableStateFieldIT_E
FN:43,_ZN11ControlTaskIvE18add_writable_fieldIjEEb18WritableStateFieldIT_E
FN:48,_ZN11ControlTaskIvE19find_readable_fieldIfEENSt3__110shared_ptrI18ReadableStateFieldIT_EEEPKcS9_j
FN:48,_ZN11ControlTaskIvE19find_readable_fieldIjEENSt3__110shared_ptrI18ReadableStateFieldIT_EEEPKcS9_j
FN:57,_ZN11ControlTaskIvE19find_writable_fieldIjEENSt3__110shared_ptrI18WritableStateFieldIT_EEEPKcS9_j
FN:57,_ZN11ControlTaskIvE19find_writable_fieldIfEENSt3__110shared_ptrI18WritableStateFieldIT_EEEPKcS9_j
FN:57,_ZN11ControlTaskIvE19find_writable_fieldINSt3__15arrayIfLm4EEEEENS2_10shared_ptrI18WritableStateFieldIT_EEEPKcSB_j
FNDA:1,_ZN11ControlTaskIvE19find_writable_fieldINSt3__15arrayIfLm4EEEEENS2_10shared_ptrI18WritableStateFieldIT_EEEPKcSB_j
FNDA:1,_ZN11ControlTaskIvE18add_writable_fieldIjEEb18WritableStateFieldIT_E
FNDA:1,_ZN11ControlTaskIvE19find_writable_fieldIjEENSt3__110shared_ptrI18WritableStateFieldIT_EEEPKcS9_j
FNDA:1,_ZN11ControlTaskIvE19find_writable_fieldIfEENSt3__110shared_ptrI18WritableStateFieldIT_EEEPKcS9_j
FNDA:3,_ZN11ControlTaskIvEC2ER18StateFieldRegistry
FNDA:1,_ZN11ControlTaskIvE18add_readable_fieldIjEEb18ReadableStateFieldIT_E
FNDA:3,_ZN11ControlTaskIvED2Ev
FNDA:1,_ZN11ControlTaskIvE19find_readable_fieldIjEENSt3__110shared_ptrI18ReadableStateFieldIT_EEEPKcS9_j
FNDA:1,_ZN11ControlTaskIvE18add_readable_fieldIbEEb18ReadableStateFieldIT_E
FNDA:1,_ZN11ControlTaskIvE19find_readable_fieldIfEENSt3__110shared_ptrI18ReadableStateFieldIT_EEEPKcS9_j
FNF:10
FNH:10
DA:19,3
DA:27,3
DA:38,2
DA:39,2
DA:40,0
DA:43,1
DA:44,1
DA:45,0
DA:48,2
DA:49,2
DA:50,2
DA:51,0
DA:54,2
DA:57,3
DA:58,3
DA:59,3
DA:60,0
DA:63,3
LF:18
LH:14
end_of_record
TN:
SF:/Users/tanishqaggarwal/Documents/pan/repositories/FlightSoftware/lib/utils/QuakeMessage.cpp
FN:3,_ZN12QuakeMessageC2Ev
FN:3,_ZN12QuakeMessageC1Ev
FN:5,_ZN12QuakeMessageC2Ej
FN:5,_ZN12QuakeMessageC1Ej
FN:7,_ZN12QuakeMessageC2ERKS_
FN:7,_ZN12QuakeMessageC1ERKS_
FN:12,_ZN12QuakeMessageaSERKS_
FN:18,_ZN12QuakeMessageixEi
FN:20,_ZNK12QuakeMessageixEi
FN:22,_ZNK12QuakeMessage12copy_messageEPc
FNDA:0,_ZN12QuakeMessageC2Ej
FNDA:0,_ZN12QuakeMessageC2ERKS_
FNDA:0,_ZNK12QuakeMessage12copy_messageEPc
FNDA:0,_ZN12QuakeMessageaSERKS_
FNDA:0,_ZN12QuakeMessageC2Ev
FNDA:0,_ZN12QuakeMessageC1Ej
FNDA:0,_ZNK12QuakeMessageixEi
FNDA:0,_ZN12QuakeMessageC1ERKS_
FNDA:0,_ZN12QuakeMessageixEi
FNDA:0,_ZN12QuakeMessageC1Ev
FNF:10
FNH:0
DA:3,0
DA:5,0
DA:7,0
DA:8,0
DA:9,0
DA:10,0
DA:12,0
DA:13,0
DA:14,0
DA:15,0
DA:18,0
DA:20,0
DA:22,0
DA:23,0
DA:24,0
LF:15
LH:0
end_of_record
TN:
SF:/Users/tanishqaggarwal/Documents/pan/repositories/FlightSoftware/src/FCCode/ClockManager.cpp
FN:3,_ZN12ClockManagerC1ER18StateFieldRegistry
FN:3,_ZN12ClockManagerC2ER18StateFieldRegistry
FN:10,_ZN12ClockManager7executeEv
FNDA:0,_ZN12ClockManagerC1ER18StateFieldRegistry
FNDA:0,_ZN12ClockManager7executeEv
FNDA:0,_ZN12ClockManagerC2ER18StateFieldRegistry
FNF:3
FNH:0
DA:3,0
DA:4,0
DA:5,0
DA:6,0
DA:7,0
DA:8,0
DA:10,0
DA:11,0
DA:12,0
LF:9
LH:0
end_of_record
TN:
SF:/Users/tanishqaggarwal/Documents/pan/repositories/FlightSoftware/src/FCCode/DebugTask.cpp
FN:3,_ZN9DebugTaskC1ER18StateFieldRegistry
FN:3,_ZN9DebugTaskC2ER18StateFieldRegistry
FN:5,_ZN9DebugTask7executeEv
FN:7,_ZN9DebugTask4initEv
FNDA:0,_ZN9DebugTaskC2ER18StateFieldRegistry
FNDA:0,_ZN9DebugTask4initEv
FNDA:0,_ZN9DebugTask7executeEv
FNDA:0,_ZN9DebugTaskC1ER18StateFieldRegistry
FNF:4
FNH:0
DA:3,0
DA:5,0
DA:7,0
LF:3
LH:0
end_of_record
TN:
SF:/Users/tanishqaggarwal/Documents/pan/repositories/FlightSoftware/src/FCCode/DebugTask.hpp
FN:6,_ZN9DebugTaskD2Ev
FN:6,_ZN9DebugTaskD1Ev
FNDA:0,_ZN9DebugTaskD1Ev
FNDA:0,_ZN9DebugTaskD2Ev
FNF:2
FNH:0
DA:6,0
LF:1
LH:0
end_of_record
TN:
SF:/Users/tanishqaggarwal/Documents/pan/repositories/FlightSoftware/src/FCCode/DummyMainControlLoop.cpp
FN:4,_ZN20DummyMainControlLoopC2ER18StateFieldRegistry
FN:4,_ZN20DummyMainControlLoopC1ER18StateFieldRegistry
FN:14,_ZN20DummyMainControlLoop7executeEv
FN:18,_ZN20DummyMainControlLoop4initEv
FNDA:0,_ZN20DummyMainControlLoop7executeEv
FNDA:0,_ZN20DummyMainControlLoopC1ER18StateFieldRegistry
FNDA:0,_ZN20DummyMainControlLoopC2ER18StateFieldRegistry
FNDA:0,_ZN20DummyMainControlLoop4initEv
FNF:4
FNH:0
DA:4,0
DA:5,0
DA:6,0
DA:7,0
DA:8,0
DA:9,0
DA:10,0
DA:11,0
DA:12,0
DA:14,0
DA:15,0
DA:16,0
DA:18,0
DA:19,0
DA:20,0
LF:15
LH:0
end_of_record
TN:
SF:/Users/tanishqaggarwal/Documents/pan/repositories/FlightSoftware/src/FCCode/MainControlLoop.cpp
FN:4,_ZN15MainControlLoopC1ER18StateFieldRegistry
FN:4,_ZN15MainControlLoopC2ER18StateFieldRegistry
FN:14,_ZN15MainControlLoop7executeEv
FN:18,_ZN15MainControlLoop4initEv
FNDA:0,_ZN15MainControlLoopC2ER18StateFieldRegistry
FNDA:0,_ZN15MainControlLoop7executeEv
FNDA:0,_ZN15MainControlLoopC1ER18StateFieldRegistry
FNDA:0,_ZN15MainControlLoop4initEv
FNF:4
FNH:0
DA:4,0
DA:5,0
DA:6,0
DA:7,0
DA:8,0
DA:9,0
DA:10,0
DA:11,0
DA:12,0
DA:14,0
DA:15,0
DA:16,0
DA:18,0
DA:19,0
DA:20,0
LF:15
LH:0
end_of_record
TN:
SF:/Users/tanishqaggarwal/Documents/pan/repositories/FlightSoftware/src/FCCode/MissionManager.cpp
FN:3,_ZN14MissionManagerC2ER18StateFieldRegistry
FN:3,_ZN14MissionManagerC1ER18StateFieldRegistry
FN:25,_ZN14MissionManager7executeEv
FN:71,_ZN14MissionManager16dispatch_startupEv
FN:76,_ZN14MissionManager17dispatch_detumbleEv
FN:87,_ZN14MissionManager28dispatch_initialization_holdEv
FN:91,_ZN14MissionManager17dispatch_followerEv
FN:96,_ZN14MissionManager32dispatch_follower_close_approachEv
FN:100,_ZN14MissionManager16dispatch_standbyEv
FN:104,_ZN14MissionManager30dispatch_leader_close_approachEv
FN:108,_ZN14MissionManager16dispatch_dockingEv
FN:112,_ZN14MissionManager15dispatch_dockedEv
FN:116,_ZN14MissionManager15dispatch_pairedEv
FN:120,_ZN14MissionManager18dispatch_spacejunkEv
FN:124,_ZN14MissionManager17dispatch_safeholdEv
FNDA:0,_ZN14MissionManager16dispatch_standbyEv
FNDA:0,_ZN14MissionManager15dispatch_dockedEv
FNDA:0,_ZN14MissionManager16dispatch_startupEv
FNDA:0,_ZN14MissionManager17dispatch_followerEv
FNDA:1,_ZN14MissionManager17dispatch_detumbleEv
FNDA:0,_ZN14MissionManager16dispatch_dockingEv
FNDA:0,_ZN14MissionManager30dispatch_leader_close_approachEv
FNDA:1,_ZN14MissionManagerC2ER18StateFieldRegistry
FNDA:1,_ZN14MissionManager7executeEv
FNDA:0,_ZN14MissionManager15dispatch_pairedEv
FNDA:0,_ZN14MissionManager28dispatch_initialization_holdEv
FNDA:1,_ZN14MissionManagerC1ER18StateFieldRegistry
FNDA:0,_ZN14MissionManager18dispatch_spacejunkEv
FNDA:0,_ZN14MissionManager32dispatch_follower_close_approachEv
FNDA:0,_ZN14MissionManager17dispatch_safeholdEv
FNF:15
FNH:4
DA:3,2
DA:4,1
DA:5,1
DA:6,1
DA:7,1
DA:8,1
DA:9,1
DA:10,2
DA:11,1
DA:13,1
DA:14,1
DA:15,1
DA:17,1
DA:18,1
DA:19,1
DA:20,1
DA:22,1
DA:23,2
DA:25,1
DA:26,1
DA:27,1
DA:29,0
DA:30,0
DA:32,1
DA:33,1
DA:35,0
DA:36,0
DA:38,0
DA:39,0
DA:41,0
DA:42,0
DA:44,0
DA:45,0
DA:47,0
DA:48,0
DA:50,0
DA:51,0
DA:53,0
DA:54,0
DA:56,0
DA:57,0
DA:59,0
DA:60,0
DA:62,0
DA:63,0
DA:65,0
DA:66,0
DA:67,0
DA:69,1
DA:71,0
DA:74,0
DA:76,1
DA:77,1
DA:78,1
DA:79,1
DA:81,0
DA:82,0
DA:83,0
DA:84,0
DA:85,1
DA:87,0
DA:89,0
DA:91,0
DA:94,0
DA:96,0
DA:98,0
DA:100,0
DA:102,0
DA:104,0
DA:106,0
DA:108,0
DA:110,0
DA:112,0
DA:114,0
DA:116,0
DA:118,0
DA:120,0
DA:122,0
DA:124,0
DA:126,0
LF:80
LH:29
end_of_record
TN:
SF:/Users/tanishqaggarwal/Documents/pan/repositories/FlightSoftware/src/FCCode/MissionManager.hpp
FN:10,_ZN14MissionManagerD2Ev
FN:10,_ZN14MissionManagerD1Ev
FNDA:1,_ZN14MissionManagerD1Ev
FNDA:1,_ZN14MissionManagerD2Ev
FNF:2
FNH:2
DA:10,2
LF:1
LH:1
end_of_record
